target datalayout = "e-m:e-p270:32:32-p271:32:32-p272:64:64-i64:64-i128:128-f80:128-n8:16:32:64-S128"
target triple = "x86_64-pc-linux-gnu"

%struct._MAD = type { i8, i8, i8, i8, i16, i8, i8, i64, i16, i16, i32 }

@hf_opa_reserved16 = internal global i32 0, align 4
@hf_opa_BufferControlTable = internal global i32 0, align 4
@hf_opa_BufferControlTable_TxOverallSharedLimit = internal global i32 0, align 4
@hf_opa_BufferControlTable_TxDedicatedLimit = internal global i32 0, align 4
@hf_opa_BufferControlTable_TxSharedLimit = internal global i32 0, align 4
@ett_buffercontroltable = internal global i32 0, align 4
@.str.2361 = private unnamed_addr constant [9 x i8] c" Port %u\00", align 1
@.str.2362 = private unnamed_addr constant [9 x i8] c"VL %2u: \00", align 1
@.str.2363 = private unnamed_addr constant [8 x i8] c"       \00", align 1

; Function Attrs: null_pointer_is_valid sspstrong uwtable
define internal i32 @parse_BufferControlTable(ptr noundef %0, ptr noundef %1, ptr noundef %2, ptr noundef %3) #0 {
  %5 = alloca i32, align 4
  %6 = alloca ptr, align 8
  %7 = alloca ptr, align 8
  %8 = alloca ptr, align 8
  %9 = alloca ptr, align 8
  %10 = alloca i32, align 4
  %11 = alloca ptr, align 8
  %12 = alloca ptr, align 8
  %13 = alloca ptr, align 8
  %14 = alloca ptr, align 8
  %15 = alloca i32, align 4
  %16 = alloca i32, align 4
  %17 = alloca i32, align 4
  %18 = alloca i32, align 4
  %19 = alloca i32, align 4
  %20 = alloca i32, align 4
  %21 = alloca i32, align 4
  store ptr %0, ptr %6, align 8
  store ptr %1, ptr %7, align 8
  store ptr %2, ptr %8, align 8
  store ptr %3, ptr %9, align 8
  call void @llvm.lifetime.start.p0(i64 4, ptr %10) #7
  %22 = load ptr, ptr %8, align 8
  %23 = load i32, ptr %22, align 4
  store i32 %23, ptr %10, align 4
  call void @llvm.lifetime.start.p0(i64 8, ptr %11) #7
  call void @llvm.lifetime.start.p0(i64 8, ptr %12) #7
  call void @llvm.lifetime.start.p0(i64 8, ptr %13) #7
  call void @llvm.lifetime.start.p0(i64 8, ptr %14) #7
  call void @llvm.lifetime.start.p0(i64 4, ptr %15) #7
  call void @llvm.lifetime.start.p0(i64 4, ptr %16) #7
  call void @llvm.lifetime.start.p0(i64 4, ptr %17) #7
  call void @llvm.lifetime.start.p0(i64 4, ptr %18) #7
  call void @llvm.lifetime.start.p0(i64 4, ptr %19) #7
  store i32 132, ptr %19, align 4
  call void @llvm.lifetime.start.p0(i64 4, ptr %20) #7
  %24 = load i32, ptr %19, align 4
  %25 = and i32 %24, 7
  %26 = sub i32 8, %25
  store i32 %26, ptr %20, align 4
  %27 = load ptr, ptr %6, align 8
  %28 = icmp ne ptr %27, null
  br i1 %28, label %29, label %41

29:                                               ; preds = %4
  %30 = load ptr, ptr %9, align 8
  %31 = getelementptr inbounds nuw %struct._MAD, ptr %30, i32 0, i32 3
  %32 = load i8, ptr %31, align 1
  %33 = zext i8 %32 to i32
  %34 = icmp eq i32 %33, 1
  br i1 %34, label %41, label %35

35:                                               ; preds = %29
  %36 = load ptr, ptr %9, align 8
  %37 = getelementptr inbounds nuw %struct._MAD, ptr %36, i32 0, i32 3
  %38 = load i8, ptr %37, align 1
  %39 = zext i8 %38 to i32
  %40 = icmp eq i32 %39, 18
  br i1 %40, label %41, label %44

41:                                               ; preds = %35, %29, %4
  %42 = load ptr, ptr %8, align 8
  %43 = load i32, ptr %42, align 4
  store i32 %43, ptr %5, align 4
  store i32 1, ptr %21, align 4
  br label %138

44:                                               ; preds = %35
  %45 = load ptr, ptr %9, align 8
  %46 = getelementptr inbounds nuw %struct._MAD, ptr %45, i32 0, i32 1
  %47 = load i8, ptr %46, align 1
  %48 = zext i8 %47 to i32
  %49 = icmp eq i32 %48, 3
  br i1 %49, label %50, label %56

50:                                               ; preds = %44
  store i32 1, ptr %18, align 4
  %51 = load ptr, ptr %7, align 8
  %52 = load i32, ptr %10, align 4
  %53 = sub i32 %52, 4
  %54 = call zeroext i8 @tvb_get_uint8(ptr noundef %51, i32 noundef %53)
  %55 = zext i8 %54 to i32
  store i32 %55, ptr %17, align 4
  br label %66

56:                                               ; preds = %44
  %57 = load ptr, ptr %9, align 8
  %58 = getelementptr inbounds nuw %struct._MAD, ptr %57, i32 0, i32 10
  %59 = load i32, ptr %58, align 4
  %60 = and i32 %59, -16777216
  %61 = lshr i32 %60, 24
  store i32 %61, ptr %18, align 4
  %62 = load ptr, ptr %9, align 8
  %63 = getelementptr inbounds nuw %struct._MAD, ptr %62, i32 0, i32 10
  %64 = load i32, ptr %63, align 4
  %65 = and i32 %64, 255
  store i32 %65, ptr %17, align 4
  br label %66

66:                                               ; preds = %56, %50
  %67 = load i32, ptr %17, align 4
  store i32 %67, ptr %15, align 4
  br label %68

68:                                               ; preds = %135, %66
  %69 = load i32, ptr %15, align 4
  %70 = load i32, ptr %17, align 4
  %71 = load i32, ptr %18, align 4
  %72 = add i32 %70, %71
  %73 = icmp ult i32 %69, %72
  br i1 %73, label %74, label %136

74:                                               ; preds = %68
  %75 = load ptr, ptr %6, align 8
  %76 = load i32, ptr @hf_opa_BufferControlTable, align 4
  %77 = load ptr, ptr %7, align 8
  %78 = load i32, ptr %10, align 4
  %79 = load i32, ptr %19, align 4
  %80 = call ptr @proto_tree_add_item(ptr noundef %75, i32 noundef %76, ptr noundef %77, i32 noundef %78, i32 noundef %79, i32 noundef 0)
  store ptr %80, ptr %11, align 8
  %81 = load ptr, ptr %11, align 8
  %82 = load i32, ptr %15, align 4
  call void (ptr, ptr, ...) @proto_item_append_text(ptr noundef %81, ptr noundef @.str.2361, i32 noundef %82)
  %83 = load ptr, ptr %11, align 8
  %84 = load i32, ptr @ett_buffercontroltable, align 4
  %85 = call ptr @proto_item_add_subtree(ptr noundef %83, i32 noundef %84)
  store ptr %85, ptr %12, align 8
  %86 = load ptr, ptr %12, align 8
  %87 = load i32, ptr @hf_opa_reserved16, align 4
  %88 = load ptr, ptr %7, align 8
  %89 = load i32, ptr %10, align 4
  %90 = call ptr @proto_tree_add_item(ptr noundef %86, i32 noundef %87, ptr noundef %88, i32 noundef %89, i32 noundef 2, i32 noundef 0)
  %91 = load i32, ptr %10, align 4
  %92 = add i32 %91, 2
  store i32 %92, ptr %10, align 4
  %93 = load ptr, ptr %12, align 8
  %94 = load i32, ptr @hf_opa_BufferControlTable_TxOverallSharedLimit, align 4
  %95 = load ptr, ptr %7, align 8
  %96 = load i32, ptr %10, align 4
  %97 = call ptr @proto_tree_add_item(ptr noundef %93, i32 noundef %94, ptr noundef %95, i32 noundef %96, i32 noundef 2, i32 noundef 0)
  %98 = load i32, ptr %10, align 4
  %99 = add i32 %98, 2
  store i32 %99, ptr %10, align 4
  store i32 0, ptr %16, align 4
  br label %100

100:                                              ; preds = %121, %74
  %101 = load i32, ptr %16, align 4
  %102 = icmp ult i32 %101, 32
  br i1 %102, label %103, label %124

103:                                              ; preds = %100
  %104 = load ptr, ptr %12, align 8
  %105 = load i32, ptr @hf_opa_BufferControlTable_TxSharedLimit, align 4
  %106 = load ptr, ptr %7, align 8
  %107 = load i32, ptr %10, align 4
  %108 = call ptr @proto_tree_add_item(ptr noundef %104, i32 noundef %105, ptr noundef %106, i32 noundef %107, i32 noundef 2, i32 noundef 0)
  store ptr %108, ptr %14, align 8
  %109 = load i32, ptr %10, align 4
  %110 = add i32 %109, 2
  store i32 %110, ptr %10, align 4
  %111 = load ptr, ptr %12, align 8
  %112 = load i32, ptr @hf_opa_BufferControlTable_TxDedicatedLimit, align 4
  %113 = load ptr, ptr %7, align 8
  %114 = load i32, ptr %10, align 4
  %115 = call ptr @proto_tree_add_item(ptr noundef %111, i32 noundef %112, ptr noundef %113, i32 noundef %114, i32 noundef 2, i32 noundef 0)
  store ptr %115, ptr %13, align 8
  %116 = load i32, ptr %10, align 4
  %117 = add i32 %116, 2
  store i32 %117, ptr %10, align 4
  %118 = load ptr, ptr %14, align 8
  %119 = load i32, ptr %16, align 4
  call void (ptr, ptr, ...) @proto_item_prepend_text(ptr noundef %118, ptr noundef @.str.2362, i32 noundef %119)
  %120 = load ptr, ptr %13, align 8
  call void (ptr, ptr, ...) @proto_item_prepend_text(ptr noundef %120, ptr noundef @.str.2363)
  br label %121

121:                                              ; preds = %103
  %122 = load i32, ptr %16, align 4
  %123 = add i32 %122, 1
  store i32 %123, ptr %16, align 4
  br label %100, !llvm.loop !37

124:                                              ; preds = %100
  %125 = load i32, ptr %15, align 4
  %126 = add i32 %125, 1
  store i32 %126, ptr %15, align 4
  %127 = load i32, ptr %17, align 4
  %128 = load i32, ptr %18, align 4
  %129 = add i32 %127, %128
  %130 = icmp ult i32 %126, %129
  br i1 %130, label %131, label %135

131:                                              ; preds = %124
  %132 = load i32, ptr %20, align 4
  %133 = load i32, ptr %10, align 4
  %134 = add i32 %133, %132
  store i32 %134, ptr %10, align 4
  br label %135

135:                                              ; preds = %131, %124
  br label %68, !llvm.loop !38

136:                                              ; preds = %68
  %137 = load i32, ptr %10, align 4
  store i32 %137, ptr %5, align 4
  store i32 1, ptr %21, align 4
  br label %138

138:                                              ; preds = %136, %41
  call void @llvm.lifetime.end.p0(i64 4, ptr %20) #7
  call void @llvm.lifetime.end.p0(i64 4, ptr %19) #7
  call void @llvm.lifetime.end.p0(i64 4, ptr %18) #7
  call void @llvm.lifetime.end.p0(i64 4, ptr %17) #7
  call void @llvm.lifetime.end.p0(i64 4, ptr %16) #7
  call void @llvm.lifetime.end.p0(i64 4, ptr %15) #7
  call void @llvm.lifetime.end.p0(i64 8, ptr %14) #7
  call void @llvm.lifetime.end.p0(i64 8, ptr %13) #7
  call void @llvm.lifetime.end.p0(i64 8, ptr %12) #7
  call void @llvm.lifetime.end.p0(i64 8, ptr %11) #7
  call void @llvm.lifetime.end.p0(i64 4, ptr %10) #7
  %139 = load i32, ptr %5, align 4
  ret i32 %139
}