; Function Attrs: null_pointer_is_valid sspstrong uwtable
define internal fastcc i32 @parse_BufferControlTable(ptr noundef %0, ptr noundef %1, i32 %.0.val, ptr noundef readonly captures(none) %2) unnamed_addr #0 {
  %.not = icmp eq ptr %0, null
  br i1 %.not, label %.loopexit, label %4

4:                                                ; preds = %3
  %5 = getelementptr inbounds nuw i8, ptr %2, i64 3
  %6 = load i8, ptr %5, align 1
  switch i8 %6, label %7 [
    i8 1, label %.loopexit
    i8 18, label %.loopexit
  ]

7:                                                ; preds = %4
  %8 = getelementptr inbounds nuw i8, ptr %2, i64 1
  %9 = load i8, ptr %8, align 1
  %10 = icmp eq i8 %9, 3
  br i1 %10, label %.thread, label %15

.thread:                                          ; preds = %7
  %11 = add i32 %.0.val, -4
  %12 = tail call zeroext i8 @tvb_get_uint8(ptr noundef %1, i32 noundef %11)
  %13 = zext i8 %12 to i32
  %14 = add nuw nsw i32 %13, 1
  br label %.lr.ph.preheader

15:                                               ; preds = %7
  %16 = getelementptr inbounds nuw i8, ptr %2, i64 20
  %17 = load i32, ptr %16, align 4
  %18 = lshr i32 %17, 24
  %19 = and i32 %17, 255
  %20 = add nuw nsw i32 %18, %19
  %.not7 = icmp ult i32 %17, 16777216
  br i1 %.not7, label %.loopexit, label %.lr.ph.preheader

.lr.ph.preheader:                                 ; preds = %.thread, %15
  %21 = phi i32 [ %14, %.thread ], [ %20, %15 ]
  %.05111 = phi i32 [ %13, %.thread ], [ %19, %15 ]
  br label %.lr.ph

.lr.ph:                                           ; preds = %.lr.ph.preheader, %38
  %.0496 = phi i32 [ %41, %38 ], [ %.0.val, %.lr.ph.preheader ]
  %.0535 = phi i32 [ %39, %38 ], [ %.05111, %.lr.ph.preheader ]
  %22 = load i32, ptr @hf_opa_BufferControlTable, align 4
  %23 = tail call ptr @proto_tree_add_item(ptr noundef nonnull %0, i32 noundef %22, ptr noundef %1, i32 noundef %.0496, i32 noundef 132, i32 noundef 0)
  tail call void (ptr, ptr, ...) @proto_item_append_text(ptr noundef %23, ptr noundef nonnull @.str.2361, i32 noundef %.0535)
  %24 = load i32, ptr @ett_buffercontroltable, align 4
  %25 = tail call ptr @proto_item_add_subtree(ptr noundef %23, i32 noundef %24)
  %26 = load i32, ptr @hf_opa_reserved16, align 4
  %27 = tail call ptr @proto_tree_add_item(ptr noundef %25, i32 noundef %26, ptr noundef %1, i32 noundef %.0496, i32 noundef 2, i32 noundef 0)
  %28 = add i32 %.0496, 2
  %29 = load i32, ptr @hf_opa_BufferControlTable_TxOverallSharedLimit, align 4
  %30 = tail call ptr @proto_tree_add_item(ptr noundef %25, i32 noundef %29, ptr noundef %1, i32 noundef %28, i32 noundef 2, i32 noundef 0)
  %.11 = add i32 %.0496, 4
  br label %31

31:                                               ; preds = %.lr.ph, %31
  %.14 = phi i32 [ %.11, %.lr.ph ], [ %.1, %31 ]
  %.1.in3 = phi i32 [ %.0496, %.lr.ph ], [ %.14, %31 ]
  %.0522 = phi i32 [ 0, %.lr.ph ], [ %37, %31 ]
  %32 = load i32, ptr @hf_opa_BufferControlTable_TxSharedLimit, align 4
  %33 = tail call ptr @proto_tree_add_item(ptr noundef %25, i32 noundef %32, ptr noundef %1, i32 noundef %.14, i32 noundef 2, i32 noundef 0)
  %34 = add i32 %.1.in3, 6
  %35 = load i32, ptr @hf_opa_BufferControlTable_TxDedicatedLimit, align 4
  %36 = tail call ptr @proto_tree_add_item(ptr noundef %25, i32 noundef %35, ptr noundef %1, i32 noundef %34, i32 noundef 2, i32 noundef 0)
  tail call void (ptr, ptr, ...) @proto_item_prepend_text(ptr noundef %33, ptr noundef nonnull @.str.2362, i32 noundef %.0522)
  tail call void (ptr, ptr, ...) @proto_item_prepend_text(ptr noundef %36, ptr noundef nonnull @.str.2363)
  %37 = add nuw nsw i32 %.0522, 1
  %.1 = add i32 %.14, 4
  %exitcond.not = icmp eq i32 %37, 32
  br i1 %exitcond.not, label %38, label %31, !llvm.loop !46

38:                                               ; preds = %31
  %39 = add nuw nsw i32 %.0535, 1
  %40 = icmp samesign ult i32 %39, %21
  %41 = add i32 %.14, 8
  br i1 %40, label %.lr.ph, label %.loopexit, !llvm.loop !47

.loopexit:                                        ; preds = %38, %15, %3, %4, %4
  %.0 = phi i32 [ %.0.val, %4 ], [ %.0.val, %4 ], [ %.0.val, %3 ], [ %.0.val, %15 ], [ %.1, %38 ]
  ret i32 %.0
}